target datalayout = "e-m:e-p270:32:32-p271:32:32-p272:64:64-i64:64-i128:128-f80:128-n8:16:32:64-S128"
target triple = "x86_64-pc-linux-gnu"

%struct._spdu_can_mapping = type { i32, i32, i32 }

@.str.293 = private unnamed_addr constant [78 x i8] c"We currently do not support CAN IDs with RTR or Error Flag set (CAN_ID: 0x%x)\00", align 1
@.str.294 = private unnamed_addr constant [78 x i8] c"Standard CAN ID (EFF flag not set) cannot be bigger than 0x7ff (CAN_ID: 0x%x)\00", align 1

; Function Attrs: null_pointer_is_valid sspstrong uwtable
define internal zeroext i1 @update_spdu_can_mapping(ptr noundef %0, ptr noundef %1) #0 {
  %3 = alloca i1, align 1
  %4 = alloca ptr, align 8
  %5 = alloca ptr, align 8
  %6 = alloca ptr, align 8
  %7 = alloca i32, align 4
  store ptr %0, ptr %4, align 8
  store ptr %1, ptr %5, align 8
  call void @llvm.lifetime.start.p0(i64 8, ptr %6) #14
  %8 = load ptr, ptr %4, align 8
  store ptr %8, ptr %6, align 8
  %9 = load ptr, ptr %6, align 8
  %10 = getelementptr inbounds nuw %struct._spdu_can_mapping, ptr %9, i32 0, i32 0
  %11 = load i32, ptr %10, align 4
  %12 = and i32 %11, 1610612736
  %13 = icmp ne i32 %12, 0
  br i1 %13, label %14, label %20

14:                                               ; preds = %2
  %15 = load ptr, ptr %6, align 8
  %16 = getelementptr inbounds nuw %struct._spdu_can_mapping, ptr %15, i32 0, i32 0
  %17 = load i32, ptr %16, align 4
  %18 = call noalias ptr (ptr, ...) @g_strdup_printf(ptr noundef @.str.293, i32 noundef %17)
  %19 = load ptr, ptr %5, align 8
  store ptr %18, ptr %19, align 8
  store i1 false, ptr %3, align 1
  store i32 1, ptr %7, align 4
  br label %38

20:                                               ; preds = %2
  %21 = load ptr, ptr %6, align 8
  %22 = getelementptr inbounds nuw %struct._spdu_can_mapping, ptr %21, i32 0, i32 0
  %23 = load i32, ptr %22, align 4
  %24 = and i32 %23, -2147483648
  %25 = icmp eq i32 %24, 0
  br i1 %25, label %26, label %37

26:                                               ; preds = %20
  %27 = load ptr, ptr %6, align 8
  %28 = getelementptr inbounds nuw %struct._spdu_can_mapping, ptr %27, i32 0, i32 0
  %29 = load i32, ptr %28, align 4
  %30 = icmp ugt i32 %29, 2047
  br i1 %30, label %31, label %37

31:                                               ; preds = %26
  %32 = load ptr, ptr %6, align 8
  %33 = getelementptr inbounds nuw %struct._spdu_can_mapping, ptr %32, i32 0, i32 0
  %34 = load i32, ptr %33, align 4
  %35 = call noalias ptr (ptr, ...) @g_strdup_printf(ptr noundef @.str.294, i32 noundef %34)
  %36 = load ptr, ptr %5, align 8
  store ptr %35, ptr %36, align 8
  store i1 false, ptr %3, align 1
  store i32 1, ptr %7, align 4
  br label %38

37:                                               ; preds = %26, %20
  store i1 true, ptr %3, align 1
  store i32 1, ptr %7, align 4
  br label %38

38:                                               ; preds = %37, %31, %14
  call void @llvm.lifetime.end.p0(i64 8, ptr %6) #14
  %39 = load i1, ptr %3, align 1
  ret i1 %39
}