; Function Attrs: null_pointer_is_valid sspstrong uwtable
define internal noundef zeroext i1 @update_spdu_can_mapping(ptr noundef readonly captures(none) %0, ptr noundef writeonly captures(none) %1) #0 {
  %3 = load i32, ptr %0, align 4
  %4 = and i32 %3, 1610612736
  %.not = icmp eq i32 %4, 0
  br i1 %.not, label %5, label %.sink.split

5:                                                ; preds = %2
  %or.cond = icmp sgt i32 %3, 2047
  br i1 %or.cond, label %.sink.split, label %7

.sink.split:                                      ; preds = %5, %2
  %.str.294.sink = phi ptr [ @.str.293, %2 ], [ @.str.294, %5 ]
  %6 = tail call noalias ptr (ptr, ...) @g_strdup_printf(ptr noundef nonnull %.str.294.sink, i32 noundef %3)
  store ptr %6, ptr %1, align 8
  br label %7

7:                                                ; preds = %.sink.split, %5
  %.0 = phi i1 [ true, %5 ], [ false, %.sink.split ]
  ret i1 %.0
}